; ModuleID = '45/828.c'
source_filename = "45/828.c"
target datalayout = "e-m:e-p270:32:32-p271:32:32-p272:64:64-i64:64-f80:128-n8:16:32:64-S128"
target triple = "x86_64-pc-linux-gnu"

@.str = private unnamed_addr constant [5 x i8] c"%s%s\00", align 1
@.str.1 = private unnamed_addr constant [3 x i8] c"%d\00", align 1

; Function Attrs: noinline nounwind uwtable
define dso_local void @main() #0 {
  %1 = alloca i32, align 4
  %2 = alloca i32, align 4
  %3 = alloca i32, align 4
  %4 = alloca i32, align 4
  %5 = alloca i32, align 4
  %6 = alloca i32, align 4
  %7 = alloca [50 x i8], align 16
  %8 = alloca [50 x i8], align 16
  store i32 0, i32* %2, align 4
  store i32 1, i32* %4, align 4
  store i32 0, i32* %6, align 4
  %9 = getelementptr inbounds [50 x i8], [50 x i8]* %7, i64 0, i64 0
  %10 = getelementptr inbounds [50 x i8], [50 x i8]* %8, i64 0, i64 0
  %11 = call i32 (i8*, ...) @__isoc99_scanf(i8* getelementptr inbounds ([5 x i8], [5 x i8]* @.str, i64 0, i64 0), i8* %9, i8* %10)
  %12 = getelementptr inbounds [50 x i8], [50 x i8]* %7, i64 0, i64 0
  %13 = call i64 @strlen(i8* %12) #3
  %14 = trunc i64 %13 to i32
  store i32 %14, i32* %3, align 4
  br label %15

15:                                               ; preds = %46, %0
  store i32 1, i32* %5, align 4
  store i32 0, i32* %1, align 4
  br label %16

16:                                               ; preds = %39, %15
  %17 = load i32, i32* %1, align 4
  %18 = load i32, i32* %3, align 4
  %19 = icmp slt i32 %17, %18
  br i1 %19, label %20, label %42

20:                                               ; preds = %16
  %21 = load i32, i32* %1, align 4
  %22 = sext i32 %21 to i64
  %23 = getelementptr inbounds [50 x i8], [50 x i8]* %7, i64 0, i64 %22
  %24 = load i8, i8* %23, align 1
  %25 = sext i8 %24 to i32
  %26 = load i32, i32* %2, align 4
  %27 = sext i32 %26 to i64
  %28 = getelementptr inbounds [50 x i8], [50 x i8]* %8, i64 0, i64 %27
  %29 = load i8, i8* %28, align 1
  %30 = sext i8 %29 to i32
  %31 = icmp ne i32 %25, %30
  br i1 %31, label %32, label %36

32:                                               ; preds = %20
  store i32 0, i32* %4, align 4
  %33 = load i32, i32* %5, align 4
  %34 = load i32, i32* %4, align 4
  %35 = mul nsw i32 %33, %34
  store i32 %35, i32* %5, align 4
  br label %36

36:                                               ; preds = %32, %20
  %37 = load i32, i32* %2, align 4
  %38 = add nsw i32 %37, 1
  store i32 %38, i32* %2, align 4
  br label %39

39:                                               ; preds = %36
  %40 = load i32, i32* %1, align 4
  %41 = add nsw i32 %40, 1
  store i32 %41, i32* %1, align 4
  br label %16

42:                                               ; preds = %16
  %43 = load i32, i32* %6, align 4
  %44 = add nsw i32 %43, 1
  store i32 %44, i32* %6, align 4
  %45 = load i32, i32* %6, align 4
  store i32 %45, i32* %2, align 4
  br label %46

46:                                               ; preds = %42
  %47 = load i32, i32* %5, align 4
  %48 = icmp eq i32 %47, 0
  br i1 %48, label %15, label %49

49:                                               ; preds = %46
  %50 = load i32, i32* %6, align 4
  %51 = sub nsw i32 %50, 1
  store i32 %51, i32* %6, align 4
  %52 = load i32, i32* %6, align 4
  %53 = call i32 (i8*, ...) @printf(i8* getelementptr inbounds ([3 x i8], [3 x i8]* @.str.1, i64 0, i64 0), i32 %52)
  ret void
}

declare dso_local i32 @__isoc99_scanf(i8*, ...) #1

; Function Attrs: nounwind readonly
declare dso_local i64 @strlen(i8*) #2

declare dso_local i32 @printf(i8*, ...) #1


!llvm.module.flags = !{!0}
!llvm.ident = !{!1}

!0 = !{i32 1, !"wchar_size", i32 4}
!1 = !{!"clang version 10.0.0-4ubuntu1 "}
